ccopy_reg
_reconstructor
p0
(csklearn.linear_model.base
LinearRegression
p1
c__builtin__
object
p2
Ntp3
Rp4
(dp5
S'normalize'
p6
I00
sS'n_jobs'
p7
I-1
sS'rank_'
p8
I4
sS'fit_intercept'
p9
I01
sS'_residues'
p10
cnumpy.core.multiarray
scalar
p11
(cnumpy
dtype
p12
(S'f8'
p13
I0
I1
tp14
Rp15
(I3
S'<'
p16
NNNI-1
I-1
I0
tp17
bS'\x0e\x96/\x80*\xf2MA'
p18
tp19
Rp20
sS'coef_'
p21
cnumpy.core.multiarray
_reconstruct
p22
(cnumpy
ndarray
p23
(I0
tp24
S'b'
p25
tp26
Rp27
(I1
(L4L
tp28
g12
(S'f8'
p29
I0
I1
tp30
Rp31
(I3
S'<'
p32
NNNI-1
I-1
I0
tp33
bI00
S'\x86\x81\xc4LOBp@q\xc5I\xe8n\xc7\x00\xc0\x9c}\x1c\xbc\xf78\xdc?\xe0\xf0\xcfc\xfe\xfa\x01\xc0'
p34
tp35
bsS'_sklearn_version'
p36
S'0.20.4'
p37
sS'copy_X'
p38
I01
sS'intercept_'
p39
g11
(g15
S'\xb5V\xcap\x118z@'
p40
tp41
Rp42
sS'singular_'
p43
g22
(g23
(I0
tp44
g25
tp45
Rp46
(I1
(L4L
tp47
g31
I00
S'\x1e\xd0A\xfe+\xa5R@yk\xe0\x87spJ@a\x8cm\x8d\xb8\xd4D@T\xc8>Z-0>@'
p48
tp49
bsb.